target datalayout = "e-m:e-p270:32:32-p271:32:32-p272:64:64-i64:64-i128:128-f80:128-n8:16:32:64-S128"
target triple = "x86_64-pc-linux-gnu"

%struct.WOLFSSL_X509_STORE_CTX = type { ptr, ptr, ptr, i32, i32, i32, i32, ptr, ptr, ptr, i32 }

; Function Attrs: nounwind uwtable
define ptr @wolfSSL_X509_STORE_CTX_new_ex(ptr noundef %0) #0 {
  %2 = alloca ptr, align 8
  %3 = alloca ptr, align 8
  store ptr %0, ptr %2, align 8, !tbaa !3
  call void @llvm.lifetime.start.p0(i64 8, ptr %3) #9
  br label %4

4:                                                ; preds = %1
  br label %5

5:                                                ; preds = %4
  br label %6

6:                                                ; preds = %5
  %7 = call ptr @wolfSSL_Malloc(i64 noundef 72)
  store ptr %7, ptr %3, align 8, !tbaa !303
  %8 = load ptr, ptr %3, align 8, !tbaa !303
  %9 = icmp ne ptr %8, null
  br i1 %9, label %10, label %15

10:                                               ; preds = %6
  %11 = load ptr, ptr %3, align 8, !tbaa !303
  call void @llvm.memset.p0.i64(ptr align 8 %11, i8 0, i64 72, i1 false)
  %12 = load ptr, ptr %2, align 8, !tbaa !3
  %13 = load ptr, ptr %3, align 8, !tbaa !303
  %14 = getelementptr inbounds nuw %struct.WOLFSSL_X509_STORE_CTX, ptr %13, i32 0, i32 9
  store ptr %12, ptr %14, align 8, !tbaa !305
  br label %15

15:                                               ; preds = %10, %6
  %16 = load ptr, ptr %3, align 8, !tbaa !303
  call void @llvm.lifetime.end.p0(i64 8, ptr %3) #9
  ret ptr %16
}