; Function Attrs: nounwind uwtable
define ptr @wolfSSL_X509_STORE_CTX_new_ex(ptr noundef %0) local_unnamed_addr #0 {
  %2 = tail call ptr @wolfSSL_Malloc(i64 noundef 72) #22
  %.not = icmp eq ptr %2, null
  br i1 %.not, label %5, label %3

3:                                                ; preds = %1
  tail call void @llvm.memset.p0.i64(ptr noundef nonnull align 8 dereferenceable(72) %2, i8 0, i64 72, i1 false)
  %4 = getelementptr inbounds nuw i8, ptr %2, i64 56
  store ptr %0, ptr %4, align 8, !tbaa !271
  br label %5

5:                                                ; preds = %3, %1
  ret ptr %2
}